; Function Attrs: mustprogress uwtable
define void @_ZN3gmx15analysismodules7MsdInfo6createEv(ptr dead_on_unwind noalias nocapture writable writeonly sret(%"class.std::unique_ptr.210") align 8 %0) local_unnamed_addr #1 align 2 personality ptr @__gxx_personality_v0 {
  %2 = tail call noalias noundef nonnull dereferenceable(416) ptr @_Znwm(i64 noundef 416) #25
  invoke void @_ZN3gmx15analysismodules3MsdC1Ev(ptr noundef nonnull align 8 dereferenceable(416) %2)
          to label %3 unwind label %4

3:                                                ; preds = %1
  store ptr %2, ptr %0, align 8
  ret void

4:                                                ; preds = %1
  %5 = landingpad { ptr, i32 }
          cleanup
  tail call void @_ZdlPv(ptr noundef nonnull %2) #22
  resume { ptr, i32 } %5
}